target datalayout = "e-m:e-p270:32:32-p271:32:32-p272:64:64-i64:64-i128:128-f80:128-n8:16:32:64-S128"
target triple = "x86_64-pc-linux-gnu"

%struct.pmix_output_desc_t = type { i8, i8, i32, i8, i32, ptr, ptr, i32, ptr, i32, i8, i8, i8, i8, ptr, i32, i32 }
%struct.rtmsg = type { i8, i8, i8, i8, i8, i8, i8, i8, i32 }
%struct.prte_reachable_netlink_rt_cb_arg = type { i32, i32, i32, i32, ptr }
%struct.nlmsghdr = type { i32, i16, i16, i32, i32 }

@pmix_output_info = external global [0 x %struct.pmix_output_desc_t], align 8
@.str.7 = private unnamed_addr constant [69 x i8] c"Retrieved route has a different outgoing interface %d (expected %d)\0A\00", align 1
@.str.8 = private unnamed_addr constant [33 x i8] c"Received a netlink error message\00", align 1
@.str.9 = private unnamed_addr constant [44 x i8] c"Received a truncated netlink error message\0A\00", align 1

; Function Attrs: nounwind uwtable
define internal i32 @prte_reachable_netlink_is_nlreply_err(ptr noundef %0) #0 {
  %2 = alloca i32, align 4
  %3 = alloca ptr, align 8
  %4 = alloca ptr, align 8
  store ptr %0, ptr %3, align 8, !tbaa !30
  %5 = load ptr, ptr %3, align 8, !tbaa !30
  %6 = getelementptr inbounds nuw %struct.nlmsghdr, ptr %5, i32 0, i32 1
  %7 = load i16, ptr %6, align 4, !tbaa !40
  %8 = zext i16 %7 to i32
  %9 = icmp eq i32 %8, 2
  br i1 %9, label %10, label %29

10:                                               ; preds = %1
  call void @llvm.lifetime.start.p0(i64 8, ptr %4) #6
  %11 = load ptr, ptr %3, align 8, !tbaa !30
  %12 = call ptr @nlmsg_data(ptr noundef %11)
  store ptr %12, ptr %4, align 8, !tbaa !53
  %13 = load ptr, ptr %3, align 8, !tbaa !30
  %14 = getelementptr inbounds nuw %struct.nlmsghdr, ptr %13, i32 0, i32 0
  %15 = load i32, ptr %14, align 4, !tbaa !55
  %16 = call i32 @nlmsg_size(i32 noundef 20)
  %17 = icmp uge i32 %15, %16
  br i1 %17, label %18, label %23

18:                                               ; preds = %10
  %19 = load i32, ptr getelementptr inbounds nuw (%struct.pmix_output_desc_t, ptr @pmix_output_info, i32 0, i32 2), align 4, !tbaa !45
  %20 = icmp sge i32 %19, 20
  br i1 %20, label %21, label %22

21:                                               ; preds = %18
  call void (i32, ptr, ...) @pmix_output(i32 noundef 0, ptr noundef @.str.8)
  br label %22

22:                                               ; preds = %21, %18
  br label %28

23:                                               ; preds = %10
  %24 = load i32, ptr getelementptr inbounds nuw (%struct.pmix_output_desc_t, ptr @pmix_output_info, i32 0, i32 2), align 4, !tbaa !45
  %25 = icmp sge i32 %24, 20
  br i1 %25, label %26, label %27

26:                                               ; preds = %23
  call void (i32, ptr, ...) @pmix_output(i32 noundef 0, ptr noundef @.str.9)
  br label %27

27:                                               ; preds = %26, %23
  br label %28

28:                                               ; preds = %27, %22
  store i32 1, ptr %2, align 4
  call void @llvm.lifetime.end.p0(i64 8, ptr %4) #6
  br label %30

29:                                               ; preds = %1
  store i32 0, ptr %2, align 4
  br label %30

30:                                               ; preds = %29, %28
  %31 = load i32, ptr %2, align 4
  ret i32 %31
}

; Function Attrs: nounwind uwtable
define internal i32 @prte_reachable_netlink_is_nlreply_expected(ptr noundef %0, ptr noundef %1) #0 {
  %3 = alloca ptr, align 8
  %4 = alloca ptr, align 8
  store ptr %0, ptr %3, align 8, !tbaa !10
  store ptr %1, ptr %4, align 8, !tbaa !30
  ret i32 1
}

; Function Attrs: nounwind uwtable
define internal i32 @prte_reachable_netlink_rt_raw_parse_cb(ptr noundef %0, ptr noundef %1) #0 {
  %3 = alloca i32, align 4
  %4 = alloca ptr, align 8
  %5 = alloca ptr, align 8
  %6 = alloca ptr, align 8
  %7 = alloca ptr, align 8
  %8 = alloca ptr, align 8
  %9 = alloca ptr, align 8
  %10 = alloca [31 x ptr], align 16
  %11 = alloca i32, align 4
  %12 = alloca i32, align 4
  %13 = alloca i32, align 4
  store ptr %0, ptr %4, align 8, !tbaa !16
  store ptr %1, ptr %5, align 8, !tbaa !37
  call void @llvm.lifetime.start.p0(i64 8, ptr %6) #6
  %14 = load ptr, ptr %5, align 8, !tbaa !37
  store ptr %14, ptr %6, align 8, !tbaa !38
  call void @llvm.lifetime.start.p0(i64 8, ptr %7) #6
  %15 = load ptr, ptr %6, align 8, !tbaa !38
  %16 = getelementptr inbounds nuw %struct.prte_reachable_netlink_rt_cb_arg, ptr %15, i32 0, i32 4
  %17 = load ptr, ptr %16, align 8, !tbaa !20
  store ptr %17, ptr %7, align 8, !tbaa !10
  call void @llvm.lifetime.start.p0(i64 8, ptr %8) #6
  %18 = load ptr, ptr %4, align 8, !tbaa !16
  %19 = call ptr @nlmsg_hdr(ptr noundef %18)
  store ptr %19, ptr %8, align 8, !tbaa !30
  call void @llvm.lifetime.start.p0(i64 8, ptr %9) #6
  call void @llvm.lifetime.start.p0(i64 248, ptr %10) #6
  call void @llvm.lifetime.start.p0(i64 4, ptr %11) #6
  store i32 0, ptr %11, align 4, !tbaa !3
  call void @llvm.lifetime.start.p0(i64 4, ptr %12) #6
  %20 = load ptr, ptr %7, align 8, !tbaa !10
  %21 = load ptr, ptr %8, align 8, !tbaa !30
  %22 = call i32 @prte_reachable_netlink_is_nlreply_expected(ptr noundef %20, ptr noundef %21)
  %23 = icmp ne i32 %22, 0
  br i1 %23, label %25, label %24

24:                                               ; preds = %2
  store i32 1, ptr %3, align 4
  store i32 1, ptr %13, align 4
  br label %92

25:                                               ; preds = %2
  %26 = load ptr, ptr %8, align 8, !tbaa !30
  %27 = call i32 @prte_reachable_netlink_is_nlreply_err(ptr noundef %26)
  %28 = icmp ne i32 %27, 0
  br i1 %28, label %29, label %30

29:                                               ; preds = %25
  store i32 1, ptr %3, align 4
  store i32 1, ptr %13, align 4
  br label %92

30:                                               ; preds = %25
  %31 = load ptr, ptr %8, align 8, !tbaa !30
  %32 = getelementptr inbounds nuw %struct.nlmsghdr, ptr %31, i32 0, i32 1
  %33 = load i16, ptr %32, align 4, !tbaa !40
  %34 = zext i16 %33 to i32
  %35 = icmp ne i32 %34, 24
  br i1 %35, label %36, label %37

36:                                               ; preds = %30
  store i32 1, ptr %3, align 4
  store i32 1, ptr %13, align 4
  br label %92

37:                                               ; preds = %30
  %38 = load ptr, ptr %8, align 8, !tbaa !30
  %39 = call ptr @nlmsg_data(ptr noundef %38)
  store ptr %39, ptr %9, align 8, !tbaa !41
  %40 = load ptr, ptr %9, align 8, !tbaa !41
  %41 = getelementptr inbounds nuw %struct.rtmsg, ptr %40, i32 0, i32 0
  %42 = load i8, ptr %41, align 4, !tbaa !12
  %43 = zext i8 %42 to i32
  %44 = icmp ne i32 %43, 2
  br i1 %44, label %45, label %46

45:                                               ; preds = %37
  store i32 1, ptr %3, align 4
  store i32 1, ptr %13, align 4
  br label %92

46:                                               ; preds = %37
  %47 = load ptr, ptr %8, align 8, !tbaa !30
  %48 = getelementptr inbounds [31 x ptr], ptr %10, i64 0, i64 0
  %49 = call i32 @nlmsg_parse(ptr noundef %47, i32 noundef 12, ptr noundef %48, i32 noundef 30, ptr noundef @route_policy)
  store i32 %49, ptr %12, align 4, !tbaa !3
  %50 = load i32, ptr %12, align 4, !tbaa !3
  %51 = icmp slt i32 %50, 0
  br i1 %51, label %52, label %53

52:                                               ; preds = %46
  store i32 1, ptr %3, align 4
  store i32 1, ptr %13, align 4
  br label %92

53:                                               ; preds = %46
  %54 = getelementptr inbounds [31 x ptr], ptr %10, i64 0, i64 4
  %55 = load ptr, ptr %54, align 16, !tbaa !43
  %56 = icmp ne ptr %55, null
  br i1 %56, label %57, label %78

57:                                               ; preds = %53
  %58 = getelementptr inbounds [31 x ptr], ptr %10, i64 0, i64 4
  %59 = load ptr, ptr %58, align 16, !tbaa !43
  %60 = call i32 @nla_get_u32(ptr noundef %59)
  %61 = load ptr, ptr %6, align 8, !tbaa !38
  %62 = getelementptr inbounds nuw %struct.prte_reachable_netlink_rt_cb_arg, ptr %61, i32 0, i32 0
  %63 = load i32, ptr %62, align 8, !tbaa !18
  %64 = icmp eq i32 %60, %63
  br i1 %64, label %65, label %66

65:                                               ; preds = %57
  store i32 1, ptr %11, align 4, !tbaa !3
  br label %77

66:                                               ; preds = %57
  %67 = load i32, ptr getelementptr inbounds nuw (%struct.pmix_output_desc_t, ptr @pmix_output_info, i32 0, i32 2), align 4, !tbaa !45
  %68 = icmp sge i32 %67, 20
  br i1 %68, label %69, label %76

69:                                               ; preds = %66
  %70 = getelementptr inbounds [31 x ptr], ptr %10, i64 0, i64 4
  %71 = load ptr, ptr %70, align 16, !tbaa !43
  %72 = call i32 @nla_get_u32(ptr noundef %71)
  %73 = load ptr, ptr %6, align 8, !tbaa !38
  %74 = getelementptr inbounds nuw %struct.prte_reachable_netlink_rt_cb_arg, ptr %73, i32 0, i32 0
  %75 = load i32, ptr %74, align 8, !tbaa !18
  call void (i32, ptr, ...) @pmix_output(i32 noundef 0, ptr noundef @.str.7, i32 noundef %72, i32 noundef %75)
  br label %76

76:                                               ; preds = %69, %66
  br label %77

77:                                               ; preds = %76, %65
  br label %78

78:                                               ; preds = %77, %53
  %79 = load i32, ptr %11, align 4, !tbaa !3
  %80 = icmp ne i32 %79, 0
  br i1 %80, label %81, label %88

81:                                               ; preds = %78
  %82 = getelementptr inbounds [31 x ptr], ptr %10, i64 0, i64 5
  %83 = load ptr, ptr %82, align 8, !tbaa !43
  %84 = icmp ne ptr %83, null
  br i1 %84, label %85, label %88

85:                                               ; preds = %81
  %86 = load ptr, ptr %6, align 8, !tbaa !38
  %87 = getelementptr inbounds nuw %struct.prte_reachable_netlink_rt_cb_arg, ptr %86, i32 0, i32 2
  store i32 1, ptr %87, align 8, !tbaa !25
  br label %88

88:                                               ; preds = %85, %81, %78
  %89 = load i32, ptr %11, align 4, !tbaa !3
  %90 = load ptr, ptr %6, align 8, !tbaa !38
  %91 = getelementptr inbounds nuw %struct.prte_reachable_netlink_rt_cb_arg, ptr %90, i32 0, i32 1
  store i32 %89, ptr %91, align 4, !tbaa !24
  store i32 2, ptr %3, align 4
  store i32 1, ptr %13, align 4
  br label %92

92:                                               ; preds = %88, %52, %45, %36, %29, %24
  call void @llvm.lifetime.end.p0(i64 4, ptr %12) #6
  call void @llvm.lifetime.end.p0(i64 4, ptr %11) #6
  call void @llvm.lifetime.end.p0(i64 248, ptr %10) #6
  call void @llvm.lifetime.end.p0(i64 8, ptr %9) #6
  call void @llvm.lifetime.end.p0(i64 8, ptr %8) #6
  call void @llvm.lifetime.end.p0(i64 8, ptr %7) #6
  call void @llvm.lifetime.end.p0(i64 8, ptr %6) #6
  %93 = load i32, ptr %3, align 4
  ret i32 %93
}