; Function Attrs: nounwind uwtable
define internal range(i32 1, 3) i32 @prte_reachable_netlink_rt_raw_parse_cb(ptr noundef %0, ptr noundef captures(none) %1) #0 {
  %3 = alloca [31 x ptr], align 16
  %4 = tail call ptr @nlmsg_hdr(ptr noundef %0) #7
  call void @llvm.lifetime.start.p0(i64 248, ptr nonnull %3) #7
  %5 = getelementptr inbounds nuw i8, ptr %4, i64 4
  %6 = load i16, ptr %5, align 4, !tbaa !31
  switch i16 %6, label %prte_reachable_netlink_is_nlreply_err.exit.thread [
    i16 2, label %7
    i16 24, label %13
  ]

7:                                                ; preds = %2
  %8 = tail call ptr @nlmsg_data(ptr noundef nonnull %4) #7
  %9 = load i32, ptr %4, align 4, !tbaa !32
  %10 = tail call i32 @nlmsg_size(i32 noundef 20) #7
  %11 = load i32, ptr getelementptr inbounds nuw (i8, ptr @pmix_output_info, i64 4), align 4, !tbaa !33
  %12 = icmp sgt i32 %11, 19
  br i1 %12, label %.sink.split.i, label %prte_reachable_netlink_is_nlreply_err.exit.thread

.sink.split.i:                                    ; preds = %7
  %.not.i = icmp ult i32 %9, %10
  %.str.9..str.8.i = select i1 %.not.i, ptr @.str.9, ptr @.str.8
  tail call void (i32, ptr, ...) @pmix_output(i32 noundef 0, ptr noundef nonnull %.str.9..str.8.i) #7
  br label %prte_reachable_netlink_is_nlreply_err.exit.thread

13:                                               ; preds = %2
  %14 = tail call ptr @nlmsg_data(ptr noundef nonnull %4) #7
  %15 = load i8, ptr %14, align 4, !tbaa !15
  %.not22 = icmp eq i8 %15, 2
  br i1 %.not22, label %16, label %prte_reachable_netlink_is_nlreply_err.exit.thread

16:                                               ; preds = %13
  %17 = call i32 @nlmsg_parse(ptr noundef nonnull %4, i32 noundef 12, ptr noundef nonnull %3, i32 noundef 30, ptr noundef nonnull @route_policy) #7
  %18 = icmp slt i32 %17, 0
  br i1 %18, label %prte_reachable_netlink_is_nlreply_err.exit.thread, label %19

19:                                               ; preds = %16
  %20 = getelementptr inbounds nuw i8, ptr %3, i64 32
  %21 = load ptr, ptr %20, align 16, !tbaa !37
  %.not23 = icmp eq ptr %21, null
  br i1 %.not23, label %.thread, label %22

22:                                               ; preds = %19
  %23 = call i32 @nla_get_u32(ptr noundef nonnull %21) #7
  %24 = load i32, ptr %1, align 8, !tbaa !24
  %25 = icmp eq i32 %23, %24
  br i1 %25, label %33, label %26

26:                                               ; preds = %22
  %27 = load i32, ptr getelementptr inbounds nuw (i8, ptr @pmix_output_info, i64 4), align 4, !tbaa !33
  %28 = icmp sgt i32 %27, 19
  br i1 %28, label %29, label %.thread

29:                                               ; preds = %26
  %30 = load ptr, ptr %20, align 16, !tbaa !37
  %31 = call i32 @nla_get_u32(ptr noundef %30) #7
  %32 = load i32, ptr %1, align 8, !tbaa !24
  call void (i32, ptr, ...) @pmix_output(i32 noundef 0, ptr noundef nonnull @.str.7, i32 noundef %31, i32 noundef %32) #7
  br label %.thread

33:                                               ; preds = %22
  %34 = getelementptr inbounds nuw i8, ptr %3, i64 40
  %35 = load ptr, ptr %34, align 8
  %.not = icmp eq ptr %35, null
  br i1 %.not, label %.thread, label %36

36:                                               ; preds = %33
  %37 = getelementptr inbounds nuw i8, ptr %1, i64 8
  store i32 1, ptr %37, align 8, !tbaa !29
  br label %.thread

.thread:                                          ; preds = %19, %26, %29, %36, %33
  %.01928 = phi i32 [ 1, %36 ], [ 1, %33 ], [ 0, %29 ], [ 0, %26 ], [ 0, %19 ]
  %38 = getelementptr inbounds nuw i8, ptr %1, i64 4
  store i32 %.01928, ptr %38, align 4, !tbaa !28
  br label %prte_reachable_netlink_is_nlreply_err.exit.thread

prte_reachable_netlink_is_nlreply_err.exit.thread: ; preds = %2, %7, %.sink.split.i, %16, %13, %.thread
  %.0 = phi i32 [ 2, %.thread ], [ 1, %13 ], [ 1, %16 ], [ 1, %.sink.split.i ], [ 1, %7 ], [ 1, %2 ]
  call void @llvm.lifetime.end.p0(i64 248, ptr nonnull %3) #7
  ret i32 %.0
}